(lp1
(dp2
S'NUMBER OF CYCLIST KILLED'
p3
S'0'
sS'CONTRIBUTING FACTOR VEHICLE 1'
p4
S'Unspecified'
p5
sS'CONTRIBUTING FACTOR VEHICLE 2'
p6
S'Unspecified'
p7
sS'CONTRIBUTING FACTOR VEHICLE 3'
p8
S''
sS'CONTRIBUTING FACTOR VEHICLE 4'
p9
S''
sS'CONTRIBUTING FACTOR VEHICLE 5'
p10
S''
sS'ZIP CODE'
p11
S'11204'
p12
sS'DATE'
p13
S'2/3/15'
p14
sS'OFF STREET NAME'
p15
S''
sS'NUMBER OF MOTORIST KILLED'
p16
S'0'
sS'Dark'
p17
I01
sS'LOCATION'
p18
S'(40.6306728, -73.9818892)'
p19
sS'ON STREET NAME'
p20
S'17 AVENUE'
p21
sS'UNIQUE KEY'
p22
S'3163802'
p23
sS'CROSS STREET NAME'
p24
S'47 STREET'
p25
sS'NUMBER OF MOTORIST INJURED'
p26
S'0'
sS'LONGITUDE'
p27
S'-73.9818892'
p28
sS'NUMBER OF PEDESTRIANS INJURED'
p29
S'0'
sS'NUMBER OF PEDESTRIANS KILLED'
p30
S'0'
sS'VEHICLE TYPE CODE 4'
p31
S''
sS'VEHICLE TYPE CODE 5'
p32
S''
sS'VEHICLE TYPE CODE 1'
p33
S'SPORT UTILITY / STATION WAGON'
p34
sS'VEHICLE TYPE CODE 2'
p35
S'BICYCLE'
p36
sS'NUMBER OF PERSONS KILLED'
p37
S'0'
sS'VEHICLE TYPE CODE 3'
p38
S''
sS'NUMBER OF CYCLIST INJURED'
p39
S'1'
sS'TIME'
p40
I1735
sS'LATITUDE'
p41
S'40.6306728'
p42
sS'NUMBER OF PERSONS INJURED'
p43
S'1'
sS'BOROUGH'
p44
S'BROOKLYN'
p45
sa(dp46
g3
S'0'
sg4
S'Failure to Yield Right-of-Way'
p47
sg6
S'Failure to Yield Right-of-Way'
p48
sg8
S''
sg9
S''
sg10
S''
sg11
S'11211'
p49
sg13
S'2/2/15'
p50
sg15
S''
sg16
S'0'
sg17
I01
sg18
S'(40.7048762, -73.9557023)'
p51
sg20
S'MARCY AVENUE'
p52
sg22
S'3162569'
p53
sg24
S'HEWES STREET'
p54
sg26
S'0'
sg27
S'-73.9557023'
p55
sg29
S'0'
sg30
S'0'
sg31
S''
sg32
S''
sg33
S'SPORT UTILITY / STATION WAGON'
p56
sg35
S'BICYCLE'
p57
sg37
S'0'
sg38
S''
sg39
S'1'
sg40
I1945
sg41
S'40.7048762'
p58
sg43
S'1'
sg44
S'BROOKLYN'
p59
sa(dp60
g3
S'0'
sg4
S'Passenger Distraction'
p61
sg6
S'Unspecified'
p62
sg8
S''
sg9
S''
sg10
S''
sg11
S''
sg13
S'2/1/15'
p63
sg15
S''
sg16
S'0'
sg18
S''
sg20
S'SEDGWICK AVENUE'
p64
sg22
S'3162355'
p65
sg24
S'WEST KINGSBRIDGE ROAD'
p66
sg26
S'0'
sg27
S''
sg29
S'0'
sg30
S'0'
sg31
S''
sg32
S''
sg33
S'PASSENGER VEHICLE'
p67
sg35
S'BICYCLE'
p68
sg37
S'0'
sg38
S''
sg39
S'1'
sg40
I1905
sg41
S''
sg43
S'1'
sg44
S''
sa(dp69
g3
S'0'
sg4
S'Other Vehicular'
p70
sg6
S'Passenger Distraction'
p71
sg8
S''
sg9
S''
sg10
S''
sg11
S'10001'
p72
sg13
S'2/1/15'
p73
sg15
S''
sg16
S'0'
sg17
I00
sg18
S'(40.7514468, -74.0014293)'
p74
sg20
S'10 AVENUE'
p75
sg22
S'3162238'
p76
sg24
S'WEST 29 STREET'
p77
sg26
S'0'
sg27
S'-74.0014293'
p78
sg29
S'0'
sg30
S'0'
sg31
S''
sg32
S''
sg33
S'SPORT UTILITY / STATION WAGON'
p79
sg35
S'BICYCLE'
p80
sg37
S'0'
sg38
S''
sg39
S'1'
sg40
I1130
sg41
S'40.7514468'
p81
sg43
S'1'
sg44
S'MANHATTAN'
p82
sa(dp83
g3
S'0'
sg4
S'Unspecified'
p84
sg6
S'Unspecified'
p85
sg8
S''
sg9
S''
sg10
S''
sg11
S'11205'
p86
sg13
S'2/1/15'
p87
sg15
S''
sg16
S'0'
sg17
I00
sg18
S'(40.694578, -73.9561419)'
p88
sg20
S'MYRTLE AVENUE'
p89
sg22
S'3162521'
p90
sg24
S'BEDFORD AVENUE'
p91
sg26
S'0'
sg27
S'-73.9561419'
p92
sg29
S'0'
sg30
S'0'
sg31
S''
sg32
S''
sg33
S'SPORT UTILITY / STATION WAGON'
p93
sg35
S'BICYCLE'
p94
sg37
S'0'
sg38
S''
sg39
S'1'
sg40
I1210
sg41
S'40.694578'
p95
sg43
S'1'
sg44
S'BROOKLYN'
p96
sa(dp97
g3
S'0'
sg4
S'Driver Inattention/Distraction'
p98
sg6
S'Driver Inattention/Distraction'
p99
sg8
S''
sg9
S''
sg10
S''
sg11
S'11694'
p100
sg13
S'2/1/15'
p101
sg15
S''
sg16
S'0'
sg17
I00
sg18
S'(40.579239, -73.8448285)'
p102
sg20
S'NEWPORT AVENUE'
p103
sg22
S'3162080'
p104
sg24
S'BEACH 124 STREET'
p105
sg26
S'0'
sg27
S'-73.8448285'
p106
sg29
S'0'
sg30
S'0'
sg31
S''
sg32
S''
sg33
S'PASSENGER VEHICLE'
p107
sg35
S'BICYCLE'
p108
sg37
S'0'
sg38
S''
sg39
S'1'
sg40
I1600
sg41
S'40.579239'
p109
sg43
S'1'
sg44
S'QUEENS'
p110
sa(dp111
g3
S'0'
sg4
S'Brakes Defective'
p112
sg6
S'Unspecified'
p113
sg8
S''
sg9
S''
sg10
S''
sg11
S'11201'
p114
sg13
S'1/31/15'
p115
sg15
S''
sg16
S'0'
sg17
I01
sg18
S'(40.6934893, -73.9791676)'
p116
sg20
S'MYRTLE AVENUE'
p117
sg22
S'3161584'
p118
sg24
S'NAVY STREET'
p119
sg26
S'0'
sg27
S'-73.9791676'
p120
sg29
S'0'
sg30
S'0'
sg31
S''
sg32
S''
sg33
S'PASSENGER VEHICLE'
p121
sg35
S'BICYCLE'
p122
sg37
S'0'
sg38
S''
sg39
S'1'
sg40
I2053
sg41
S'40.6934893'
p123
sg43
S'1'
sg44
S'BROOKLYN'
p124
sa(dp125
g3
S'0'
sg4
S'Unspecified'
p126
sg6
S'Unspecified'
p127
sg8
S''
sg9
S''
sg10
S''
sg11
S'10460'
p128
sg13
S'1/31/15'
p129
sg15
S''
sg16
S'0'
sg17
I00
sg18
S'(40.8418326, -73.8838776)'
p130
sg20
S'EAST TREMONT AVENUE'
p131
sg22
S'3161444'
p132
sg24
S'DALY AVENUE'
p133
sg26
S'0'
sg27
S'-73.8838776'
p134
sg29
S'0'
sg30
S'0'
sg31
S''
sg32
S''
sg33
S'SPORT UTILITY / STATION WAGON'
p135
sg35
S'BICYCLE'
p136
sg37
S'0'
sg38
S''
sg39
S'1'
sg40
I1430
sg41
S'40.8418326'
p137
sg43
S'1'
sg44
S'BRONX'
p138
sa(dp139
g3
S'0'
sg4
S'Failure to Yield Right-of-Way'
p140
sg6
S'Aggressive Driving/Road Rage'
p141
sg8
S''
sg9
S''
sg10
S''
sg11
S''
sg13
S'1/31/15'
p142
sg15
S''
sg16
S'0'
sg18
S''
sg20
S'SOUTH 1 STREET'
p143
sg22
S'3161588'
p144
sg24
S'GRAND STREET'
p145
sg26
S'0'
sg27
S''
sg29
S'0'
sg30
S'0'
sg31
S''
sg32
S''
sg33
S'PASSENGER VEHICLE'
p146
sg35
S'BICYCLE'
p147
sg37
S'0'
sg38
S''
sg39
S'1'
sg40
I140
sg41
S''
sg43
S'1'
sg44
S''
sa(dp148
g3
S'0'
sg4
S'Driver Inattention/Distraction'
p149
sg6
S'Unspecified'
p150
sg8
S''
sg9
S''
sg10
S''
sg11
S'11212'
p151
sg13
S'1/31/15'
p152
sg15
S''
sg16
S'0'
sg17
I01
sg18
S'(40.656213, -73.9146589)'
p153
sg20
S'CHURCH AVENUE'
p154
sg22
S'3162420'
p155
sg24
S'ROCKAWAY PARKWAY'
p156
sg26
S'0'
sg27
S'-73.9146589'
p157
sg29
S'0'
sg30
S'0'
sg31
S''
sg32
S''
sg33
S'SPORT UTILITY / STATION WAGON'
p158
sg35
S'BICYCLE'
p159
sg37
S'0'
sg38
S''
sg39
S'1'
sg40
I2230
sg41
S'40.656213'
p160
sg43
S'1'
sg44
S'BROOKLYN'
p161
sa(dp162
g3
S'0'
sg4
S'Passenger Distraction'
p163
sg6
S'Passenger Distraction'
p164
sg8
S''
sg9
S''
sg10
S''
sg11
S'10451'
p165
sg13
S'1/30/15'
p166
sg15
S''
sg16
S'0'
sg17
I00
sg18
S'(40.8193167, -73.930314)'
p167
sg20
S'EAST 149 STREET'
p168
sg22
S'3161410'
p169
sg24
S'RIVER AVENUE'
p170
sg26
S'0'
sg27
S'-73.930314'
p171
sg29
S'0'
sg30
S'0'
sg31
S''
sg32
S''
sg33
S'PASSENGER VEHICLE'
p172
sg35
S'BICYCLE'
p173
sg37
S'0'
sg38
S''
sg39
S'1'
sg40
I955
sg41
S'40.8193167'
p174
sg43
S'1'
sg44
S'BRONX'
p175
sa(dp176
g3
S'0'
sg4
S'Unspecified'
p177
sg6
S'Unspecified'
p178
sg8
S''
sg9
S''
sg10
S''
sg11
S'10017'
p179
sg13
S'1/30/15'
p180
sg15
S''
sg16
S'0'
sg17
I00
sg18
S'(40.7497339, -73.9740683)'
p181
sg20
S'EAST 41 STREET'
p182
sg22
S'3160795'
p183
sg24
S'TUNNEL EXIT STREET'
p184
sg26
S'0'
sg27
S'-73.9740683'
p185
sg29
S'0'
sg30
S'0'
sg31
S''
sg32
S''
sg33
S'TAXI'
p186
sg35
S'BICYCLE'
p187
sg37
S'0'
sg38
S''
sg39
S'1'
sg40
I1315
sg41
S'40.7497339'
p188
sg43
S'1'
sg44
S'MANHATTAN'
p189
sa(dp190
g3
S'0'
sg4
S'Unspecified'
p191
sg6
S'Unspecified'
p192
sg8
S''
sg9
S''
sg10
S''
sg11
S'10024'
p193
sg13
S'1/30/15'
p194
sg15
S''
sg16
S'0'
sg17
I00
sg18
S'(40.7871634, -73.9716812)'
p195
sg20
S'COLUMBUS AVENUE'
p196
sg22
S'3160844'
p197
sg24
S'WEST 87 STREET'
p198
sg26
S'0'
sg27
S'-73.9716812'
p199
sg29
S'0'
sg30
S'0'
sg31
S''
sg32
S''
sg33
S'PASSENGER VEHICLE'
p200
sg35
S'BICYCLE'
p201
sg37
S'0'
sg38
S''
sg39
S'1'
sg40
I1336
sg41
S'40.7871634'
p202
sg43
S'1'
sg44
S'MANHATTAN'
p203
sa(dp204
g3
S'0'
sg4
S'Unspecified'
p205
sg6
S'Unspecified'
p206
sg8
S''
sg9
S''
sg10
S''
sg11
S'10003'
p207
sg13
S'1/30/15'
p208
sg15
S''
sg16
S'0'
sg17
I01
sg18
S'(40.7346179, -73.9862126)'
p209
sg20
S'3 AVENUE'
p210
sg22
S'3162243'
p211
sg24
S'EAST 16 STREET'
p212
sg26
S'0'
sg27
S'-73.9862126'
p213
sg29
S'0'
sg30
S'0'
sg31
S''
sg32
S''
sg33
S'PASSENGER VEHICLE'
p214
sg35
S'BICYCLE'
p215
sg37
S'0'
sg38
S''
sg39
S'1'
sg40
I1721
sg41
S'40.7346179'
p216
sg43
S'1'
sg44
S'MANHATTAN'
p217
sa(dp218
g3
S'0'
sg4
S'Unspecified'
p219
sg6
S'Unspecified'
p220
sg8
S''
sg9
S''
sg10
S''
sg11
S'10467'
p221
sg13
S'1/30/15'
p222
sg15
S''
sg16
S'0'
sg17
I01
sg18
S'(40.8655081, -73.8635212)'
p223
sg20
S'ALLERTON AVENUE'
p224
sg22
S'3161456'
p225
sg24
S'BARNES AVENUE'
p226
sg26
S'0'
sg27
S'-73.8635212'
p227
sg29
S'0'
sg30
S'0'
sg31
S''
sg32
S''
sg33
S'PASSENGER VEHICLE'
p228
sg35
S'BICYCLE'
p229
sg37
S'0'
sg38
S''
sg39
S'1'
sg40
I2020
sg41
S'40.8655081'
p230
sg43
S'1'
sg44
S'BRONX'
p231
sa(dp232
g3
S'0'
sg4
S'Passenger Distraction'
p233
sg6
S'Unspecified'
p234
sg8
S''
sg9
S''
sg10
S''
sg11
S'10069'
p235
sg13
S'1/29/15'
p236
sg15
S''
sg16
S'0'
sg17
I01
sg18
S'(40.7765304, -73.988428)'
p237
sg20
S'FREEDOM PLACE'
p238
sg22
S'3160836'
p239
sg24
S'WEST 66 STREET'
p240
sg26
S'0'
sg27
S'-73.988428'
p241
sg29
S'0'
sg30
S'0'
sg31
S''
sg32
S''
sg33
S'PASSENGER VEHICLE'
p242
sg35
S'BICYCLE'
p243
sg37
S'0'
sg38
S''
sg39
S'1'
sg40
I2052
sg41
S'40.7765304'
p244
sg43
S'1'
sg44
S'MANHATTAN'
p245
sa(dp246
g3
S'0'
sg4
S'Failure to Yield Right-of-Way'
p247
sg6
S'Unspecified'
p248
sg8
S''
sg9
S''
sg10
S''
sg11
S'11692'
p249
sg13
S'1/28/15'
p250
sg15
S''
sg16
S'0'
sg17
I01
sg18
S'(40.5928486, -73.7961518)'
p251
sg20
S'BEACH CHANNEL DRIVE'
p252
sg22
S'3160080'
p253
sg24
S'BEACH 67 STREET'
p254
sg26
S'0'
sg27
S'-73.7961518'
p255
sg29
S'0'
sg30
S'0'
sg31
S''
sg32
S''
sg33
S'PASSENGER VEHICLE'
p256
sg35
S'BICYCLE'
p257
sg37
S'0'
sg38
S''
sg39
S'1'
sg40
I2010
sg41
S'40.5928486'
p258
sg43
S'1'
sg44
S'QUEENS'
p259
sa(dp260
g3
S'0'
sg4
S'Unspecified'
p261
sg6
S'Unspecified'
p262
sg8
S''
sg9
S''
sg10
S''
sg11
S'11428'
p263
sg13
S'1/28/15'
p264
sg15
S''
sg16
S'0'
sg17
I00
sg18
S'(40.71731, -73.739842)'
p265
sg20
S'JAMAICA AVENUE'
p266
sg22
S'3160139'
p267
sg24
S'215 PLACE'
p268
sg26
S'0'
sg27
S'-73.739842'
p269
sg29
S'0'
sg30
S'0'
sg31
S''
sg32
S''
sg33
S'PASSENGER VEHICLE'
p270
sg35
S'BICYCLE'
p271
sg37
S'0'
sg38
S''
sg39
S'1'
sg40
I1430
sg41
S'40.71731'
p272
sg43
S'1'
sg44
S'QUEENS'
p273
sa(dp274
g3
S'0'
sg4
S'Unspecified'
p275
sg6
S'Unspecified'
p276
sg8
S''
sg9
S''
sg10
S''
sg11
S'11219'
p277
sg13
S'1/28/15'
p278
sg15
S''
sg16
S'0'
sg17
I01
sg18
S'(40.6362834, -73.9836351)'
p279
sg20
S'15 AVENUE'
p280
sg22
S'3159978'
p281
sg24
S'42 STREET'
p282
sg26
S'0'
sg27
S'-73.9836351'
p283
sg29
S'0'
sg30
S'0'
sg31
S''
sg32
S''
sg33
S'PASSENGER VEHICLE'
p284
sg35
S'BICYCLE'
p285
sg37
S'0'
sg38
S''
sg39
S'1'
sg40
I1900
sg41
S'40.6362834'
p286
sg43
S'1'
sg44
S'BROOKLYN'
p287
sa(dp288
g3
S'0'
sg4
S'Unspecified'
p289
sg6
S'Unspecified'
p290
sg8
S''
sg9
S''
sg10
S''
sg11
S'10035'
p291
sg13
S'1/28/15'
p292
sg15
S''
sg16
S'0'
sg17
I01
sg18
S'(40.8089583, -73.9404033)'
p293
sg20
S'WEST 129 STREET'
p294
sg22
S'3160331'
p295
sg24
S'5 AVENUE'
p296
sg26
S'0'
sg27
S'-73.9404033'
p297
sg29
S'0'
sg30
S'0'
sg31
S''
sg32
S''
sg33
S'PASSENGER VEHICLE'
p298
sg35
S'BICYCLE'
p299
sg37
S'0'
sg38
S''
sg39
S'1'
sg40
I1940
sg41
S'40.8089583'
p300
sg43
S'1'
sg44
S'MANHATTAN'
p301
sa(dp302
g3
S'0'
sg4
S'Other Vehicular'
p303
sg6
S'Passenger Distraction'
p304
sg8
S''
sg9
S''
sg10
S''
sg11
S'10457'
p305
sg13
S'1/27/15'
p306
sg15
S''
sg16
S'0'
sg17
I01
sg18
S'(40.8540693, -73.8993168)'
p307
sg20
S'VALENTINE AVENUE'
p308
sg22
S'3164373'
p309
sg24
S'EAST 181 STREET'
p310
sg26
S'0'
sg27
S'-73.8993168'
p311
sg29
S'0'
sg30
S'0'
sg31
S''
sg32
S''
sg33
S'LIVERY VEHICLE'
p312
sg35
S'BICYCLE'
p313
sg37
S'0'
sg38
S''
sg39
S'1'
sg40
I2321
sg41
S'40.8540693'
p314
sg43
S'1'
sg44
S'BRONX'
p315
sa(dp316
g3
S'0'
sg4
S'Unspecified'
p317
sg6
S'Unspecified'
p318
sg8
S''
sg9
S''
sg10
S''
sg11
S'10023'
p319
sg13
S'1/25/15'
p320
sg15
S''
sg16
S'0'
sg17
I00
sg18
S'(40.7730328, -73.9821971)'
p321
sg20
S'BROADWAY'
p322
sg22
S'3159096'
p323
sg24
S'WEST 65 STREET'
p324
sg26
S'0'
sg27
S'-73.9821971'
p325
sg29
S'0'
sg30
S'0'
sg31
S''
sg32
S''
sg33
S'SPORT UTILITY / STATION WAGON'
p326
sg35
S'BICYCLE'
p327
sg37
S'0'
sg38
S''
sg39
S'1'
sg40
I1517
sg41
S'40.7730328'
p328
sg43
S'1'
sg44
S'MANHATTAN'
p329
sa(dp330
g3
S'0'
sg4
S'Unspecified'
p331
sg6
S'Unspecified'
p332
sg8
S''
sg9
S''
sg10
S''
sg11
S'11221'
p333
sg13
S'1/25/15'
p334
sg15
S''
sg16
S'0'
sg17
I00
sg18
S'(40.6921641, -73.9147535)'
p335
sg20
S'CENTRAL AVENUE'
p336
sg22
S'3158880'
p337
sg24
S'PUTNAM AVENUE'
p338
sg26
S'0'
sg27
S'-73.9147535'
p339
sg29
S'0'
sg30
S'0'
sg31
S''
sg32
S''
sg33
S'SPORT UTILITY / STATION WAGON'
p340
sg35
S'BICYCLE'
p341
sg37
S'0'
sg38
S''
sg39
S'1'
sg40
I1454
sg41
S'40.6921641'
p342
sg43
S'1'
sg44
S'BROOKLYN'
p343
sa(dp344
g3
S'0'
sg4
S'Unspecified'
p345
sg6
S'Unspecified'
p346
sg8
S''
sg9
S''
sg10
S''
sg11
S'11229'
p347
sg13
S'1/24/15'
p348
sg15
S''
sg16
S'0'
sg17
I01
sg18
S'(40.6063484, -73.9527245)'
p349
sg20
S'OCEAN AVENUE'
p350
sg22
S'3158812'
p351
sg24
S'AVENUE R'
p352
sg26
S'0'
sg27
S'-73.9527245'
p353
sg29
S'0'
sg30
S'0'
sg31
S''
sg32
S''
sg33
S'SPORT UTILITY / STATION WAGON'
p354
sg35
S'BICYCLE'
p355
sg37
S'0'
sg38
S''
sg39
S'1'
sg40
I2155
sg41
S'40.6063484'
p356
sg43
S'1'
sg44
S'BROOKLYN'
p357
sa.